target datalayout = "e-m:e-p270:32:32-p271:32:32-p272:64:64-i64:64-i128:128-f80:128-n8:16:32:64-S128"
target triple = "x86_64-unknown-linux-gnu"

; Function Attrs: fn_ret_thunk_extern nofree norecurse nosync nounwind null_pointer_is_valid memory(argmem: readwrite)
define dso_local i64 @mpihelp_rshift(ptr nocapture noundef writeonly %0, ptr nocapture noundef readonly %1, i32 noundef %2, i32 noundef %3) local_unnamed_addr #0 align 16 {
  %5 = getelementptr i8, ptr %0, i64 -8
  %6 = sub i32 64, %3
  %7 = load i64, ptr %1, align 8
  %8 = zext i32 %6 to i64
  %9 = icmp sgt i32 %2, 1
  br i1 %9, label %10, label %27

10:                                               ; preds = %4
  %11 = zext nneg i32 %3 to i64
  %12 = zext nneg i32 %2 to i64
  br label %13

13:                                               ; preds = %13, %10
  %14 = phi i64 [ 1, %10 ], [ %22, %13 ]
  %15 = phi i64 [ %7, %10 ], [ %17, %13 ]
  %16 = getelementptr i64, ptr %1, i64 %14
  %17 = load i64, ptr %16, align 8
  %18 = lshr i64 %15, %11
  %19 = shl i64 %17, %8
  %20 = or i64 %19, %18
  %21 = getelementptr i64, ptr %5, i64 %14
  store i64 %20, ptr %21, align 8
  %22 = add nuw nsw i64 %14, 1
  %23 = icmp eq i64 %22, %12
  br i1 %23, label %24, label %13, !llvm.loop !5

24:                                               ; preds = %13
  %25 = shl i64 %22, 32
  %26 = ashr exact i64 %25, 32
  br label %27

27:                                               ; preds = %24, %4
  %28 = phi i64 [ %7, %4 ], [ %17, %24 ]
  %29 = phi i64 [ 1, %4 ], [ %26, %24 ]
  %30 = shl i64 %7, %8
  %31 = zext nneg i32 %3 to i64
  %32 = lshr i64 %28, %31
  %33 = getelementptr i64, ptr %5, i64 %29
  store i64 %32, ptr %33, align 8
  ret i64 %30
}


!llvm.module.flags = !{!0, !1, !2, !3, !4}

!0 = !{i32 1, !"wchar_size", i32 2}
!1 = !{i32 8, !"cf-protection-branch", i32 1}
!2 = !{i32 4, !"function_return_thunk_extern", i32 1}
!3 = !{i32 4, !"indirect_branch_cs_prefix", i32 1}
!4 = !{i32 4, !"SkipRaxSetup", i32 1}
!5 = distinct !{!5, !6, !7}
!6 = !{!"llvm.loop.mustprogress"}
!7 = !{!"llvm.loop.unroll.disable"}
